; Function Attrs: alwaysinline norecurse nounwind uwtable
define internal void @_ZNK8LightGBM19RegressionGammaLoss12GetGradientsEPKdPfS3_.omp_outlined(ptr noalias noundef readonly captures(none) %0, ptr noalias readnone captures(none) %1, ptr noundef readonly captures(none) %2, ptr noundef nonnull readonly align 8 captures(none) dereferenceable(8) %3, ptr noundef nonnull readonly align 8 captures(none) dereferenceable(8) %4, ptr noundef nonnull readonly align 8 captures(none) dereferenceable(8) %5) #14 {
  %7 = alloca i32, align 4
  %8 = alloca i32, align 4
  %9 = alloca i32, align 4
  %10 = alloca i32, align 4
  %11 = getelementptr inbounds nuw i8, ptr %2, i64 12
  %12 = load i32, ptr %11, align 4, !tbaa !147
  %13 = icmp sgt i32 %12, 0
  br i1 %13, label %14, label %45

14:                                               ; preds = %6
  %15 = add nsw i32 %12, -1
  call void @llvm.lifetime.start.p0(i64 4, ptr nonnull %7) #15
  store i32 0, ptr %7, align 4, !tbaa !127
  call void @llvm.lifetime.start.p0(i64 4, ptr nonnull %8) #15
  store i32 %15, ptr %8, align 4, !tbaa !127
  call void @llvm.lifetime.start.p0(i64 4, ptr nonnull %9) #15
  store i32 1, ptr %9, align 4, !tbaa !127
  call void @llvm.lifetime.start.p0(i64 4, ptr nonnull %10) #15
  store i32 0, ptr %10, align 4, !tbaa !127
  %16 = load i32, ptr %0, align 4, !tbaa !127
  call void @__kmpc_for_static_init_4(ptr nonnull @1, i32 %16, i32 34, ptr nonnull %10, ptr nonnull %7, ptr nonnull %8, ptr nonnull %9, i32 1, i32 1)
  %17 = load i32, ptr %8, align 4, !tbaa !127
  %18 = call i32 @llvm.smin.i32(i32 %17, i32 %15)
  store i32 %18, ptr %8, align 4, !tbaa !127
  %19 = load i32, ptr %7, align 4, !tbaa !127
  %.not20 = icmp sgt i32 %19, %18
  br i1 %.not20, label %._crit_edge, label %.lr.ph

.lr.ph:                                           ; preds = %14
  %20 = load ptr, ptr %3, align 8, !tbaa !152
  %21 = getelementptr inbounds nuw i8, ptr %2, i64 16
  %22 = load ptr, ptr %21, align 8, !tbaa !148
  %23 = load ptr, ptr %4, align 8, !tbaa !150
  %24 = load ptr, ptr %5, align 8, !tbaa !150
  %25 = sext i32 %19 to i64
  br label %26

26:                                               ; preds = %.lr.ph, %26
  %indvars.iv = phi i64 [ %25, %.lr.ph ], [ %indvars.iv.next, %26 ]
  %27 = getelementptr inbounds double, ptr %20, i64 %indvars.iv
  %28 = load double, ptr %27, align 8, !tbaa !153
  %29 = fneg double %28
  %30 = call double @exp(double noundef %29) #15, !tbaa !127
  %31 = getelementptr inbounds float, ptr %22, i64 %indvars.iv
  %32 = load float, ptr %31, align 4, !tbaa !175
  %33 = fpext float %32 to double
  %34 = fneg double %33
  %35 = call double @llvm.fmuladd.f64(double %34, double %30, double 1.000000e+00)
  %36 = fptrunc double %35 to float
  %37 = getelementptr inbounds float, ptr %23, i64 %indvars.iv
  store float %36, ptr %37, align 4, !tbaa !175
  %38 = load float, ptr %31, align 4, !tbaa !175
  %39 = fpext float %38 to double
  %40 = fmul double %30, %39
  %41 = fptrunc double %40 to float
  %42 = getelementptr inbounds float, ptr %24, i64 %indvars.iv
  store float %41, ptr %42, align 4, !tbaa !175
  %indvars.iv.next = add nsw i64 %indvars.iv, 1
  %43 = load i32, ptr %8, align 4, !tbaa !127
  %44 = sext i32 %43 to i64
  %.not.not = icmp slt i64 %indvars.iv, %44
  br i1 %.not.not, label %26, label %._crit_edge

._crit_edge:                                      ; preds = %26, %14
  call void @__kmpc_for_static_fini(ptr nonnull @1, i32 %16)
  call void @llvm.lifetime.end.p0(i64 4, ptr nonnull %10) #15
  call void @llvm.lifetime.end.p0(i64 4, ptr nonnull %9) #15
  call void @llvm.lifetime.end.p0(i64 4, ptr nonnull %8) #15
  call void @llvm.lifetime.end.p0(i64 4, ptr nonnull %7) #15
  br label %45

45:                                               ; preds = %._crit_edge, %6
  ret void
}